; ModuleID = '5/150.c'
source_filename = "5/150.c"
target datalayout = "e-m:e-p270:32:32-p271:32:32-p272:64:64-i64:64-f80:128-n8:16:32:64-S128"
target triple = "x86_64-pc-linux-gnu"

@.str = private unnamed_addr constant [4 x i8] c"%lf\00", align 1
@.str.1 = private unnamed_addr constant [3 x i8] c"%s\00", align 1
@.str.2 = private unnamed_addr constant [6 x i8] c"error\00", align 1
@.str.3 = private unnamed_addr constant [4 x i8] c"yes\00", align 1
@.str.4 = private unnamed_addr constant [3 x i8] c"no\00", align 1

; Function Attrs: noinline nounwind uwtable
define dso_local i32 @main() #0 {
  %1 = alloca i32, align 4
  %2 = alloca [2 x [650 x i8]], align 16
  %3 = alloca double, align 8
  %4 = alloca i32, align 4
  %5 = alloca i32, align 4
  %6 = alloca i32, align 4
  %7 = alloca i32, align 4
  %8 = alloca i32, align 4
  store i32 0, i32* %1, align 4
  %9 = call i32 (i8*, ...) @__isoc99_scanf(i8* getelementptr inbounds ([4 x i8], [4 x i8]* @.str, i64 0, i64 0), double* %3)
  %10 = getelementptr inbounds [2 x [650 x i8]], [2 x [650 x i8]]* %2, i64 0, i64 0
  %11 = getelementptr inbounds [650 x i8], [650 x i8]* %10, i64 0, i64 0
  %12 = call i32 (i8*, ...) @__isoc99_scanf(i8* getelementptr inbounds ([3 x i8], [3 x i8]* @.str.1, i64 0, i64 0), i8* %11)
  %13 = getelementptr inbounds [2 x [650 x i8]], [2 x [650 x i8]]* %2, i64 0, i64 1
  %14 = getelementptr inbounds [650 x i8], [650 x i8]* %13, i64 0, i64 0
  %15 = call i32 (i8*, ...) @__isoc99_scanf(i8* getelementptr inbounds ([3 x i8], [3 x i8]* @.str.1, i64 0, i64 0), i8* %14)
  %16 = getelementptr inbounds [2 x [650 x i8]], [2 x [650 x i8]]* %2, i64 0, i64 0
  %17 = getelementptr inbounds [650 x i8], [650 x i8]* %16, i64 0, i64 0
  %18 = call i64 @strlen(i8* %17) #3
  %19 = trunc i64 %18 to i32
  store i32 %19, i32* %4, align 4
  %20 = getelementptr inbounds [2 x [650 x i8]], [2 x [650 x i8]]* %2, i64 0, i64 1
  %21 = getelementptr inbounds [650 x i8], [650 x i8]* %20, i64 0, i64 0
  %22 = call i64 @strlen(i8* %21) #3
  %23 = trunc i64 %22 to i32
  store i32 %23, i32* %5, align 4
  %24 = load double, double* %3, align 8
  %25 = fmul double %24, 1.000000e+00
  %26 = load i32, i32* %4, align 4
  %27 = sitofp i32 %26 to double
  %28 = fmul double %25, %27
  store double %28, double* %3, align 8
  store i32 0, i32* %6, align 4
  store i32 0, i32* %7, align 4
  store i32 0, i32* %8, align 4
  br label %29

29:                                               ; preds = %121, %0
  %30 = load i32, i32* %8, align 4
  %31 = load i32, i32* %4, align 4
  %32 = icmp slt i32 %30, %31
  br i1 %32, label %33, label %124

33:                                               ; preds = %29
  %34 = getelementptr inbounds [2 x [650 x i8]], [2 x [650 x i8]]* %2, i64 0, i64 0
  %35 = load i32, i32* %8, align 4
  %36 = sext i32 %35 to i64
  %37 = getelementptr inbounds [650 x i8], [650 x i8]* %34, i64 0, i64 %36
  %38 = load i8, i8* %37, align 1
  %39 = sext i8 %38 to i32
  %40 = icmp ne i32 %39, 65
  br i1 %40, label %41, label %67

41:                                               ; preds = %33
  %42 = getelementptr inbounds [2 x [650 x i8]], [2 x [650 x i8]]* %2, i64 0, i64 0
  %43 = load i32, i32* %8, align 4
  %44 = sext i32 %43 to i64
  %45 = getelementptr inbounds [650 x i8], [650 x i8]* %42, i64 0, i64 %44
  %46 = load i8, i8* %45, align 1
  %47 = sext i8 %46 to i32
  %48 = icmp ne i32 %47, 84
  br i1 %48, label %49, label %67

49:                                               ; preds = %41
  %50 = getelementptr inbounds [2 x [650 x i8]], [2 x [650 x i8]]* %2, i64 0, i64 0
  %51 = load i32, i32* %8, align 4
  %52 = sext i32 %51 to i64
  %53 = getelementptr inbounds [650 x i8], [650 x i8]* %50, i64 0, i64 %52
  %54 = load i8, i8* %53, align 1
  %55 = sext i8 %54 to i32
  %56 = icmp ne i32 %55, 71
  br i1 %56, label %57, label %67

57:                                               ; preds = %49
  %58 = getelementptr inbounds [2 x [650 x i8]], [2 x [650 x i8]]* %2, i64 0, i64 0
  %59 = load i32, i32* %8, align 4
  %60 = sext i32 %59 to i64
  %61 = getelementptr inbounds [650 x i8], [650 x i8]* %58, i64 0, i64 %60
  %62 = load i8, i8* %61, align 1
  %63 = sext i8 %62 to i32
  %64 = icmp ne i32 %63, 67
  br i1 %64, label %65, label %67

65:                                               ; preds = %57
  %66 = call i32 (i8*, ...) @printf(i8* getelementptr inbounds ([6 x i8], [6 x i8]* @.str.2, i64 0, i64 0))
  store i32 1, i32* %7, align 4
  br label %124

67:                                               ; preds = %57, %49, %41, %33
  %68 = getelementptr inbounds [2 x [650 x i8]], [2 x [650 x i8]]* %2, i64 0, i64 1
  %69 = load i32, i32* %8, align 4
  %70 = sext i32 %69 to i64
  %71 = getelementptr inbounds [650 x i8], [650 x i8]* %68, i64 0, i64 %70
  %72 = load i8, i8* %71, align 1
  %73 = sext i8 %72 to i32
  %74 = icmp ne i32 %73, 65
  br i1 %74, label %75, label %101

75:                                               ; preds = %67
  %76 = getelementptr inbounds [2 x [650 x i8]], [2 x [650 x i8]]* %2, i64 0, i64 1
  %77 = load i32, i32* %8, align 4
  %78 = sext i32 %77 to i64
  %79 = getelementptr inbounds [650 x i8], [650 x i8]* %76, i64 0, i64 %78
  %80 = load i8, i8* %79, align 1
  %81 = sext i8 %80 to i32
  %82 = icmp ne i32 %81, 84
  br i1 %82, label %83, label %101

83:                                               ; preds = %75
  %84 = getelementptr inbounds [2 x [650 x i8]], [2 x [650 x i8]]* %2, i64 0, i64 1
  %85 = load i32, i32* %8, align 4
  %86 = sext i32 %85 to i64
  %87 = getelementptr inbounds [650 x i8], [650 x i8]* %84, i64 0, i64 %86
  %88 = load i8, i8* %87, align 1
  %89 = sext i8 %88 to i32
  %90 = icmp ne i32 %89, 71
  br i1 %90, label %91, label %101

91:                                               ; preds = %83
  %92 = getelementptr inbounds [2 x [650 x i8]], [2 x [650 x i8]]* %2, i64 0, i64 1
  %93 = load i32, i32* %8, align 4
  %94 = sext i32 %93 to i64
  %95 = getelementptr inbounds [650 x i8], [650 x i8]* %92, i64 0, i64 %94
  %96 = load i8, i8* %95, align 1
  %97 = sext i8 %96 to i32
  %98 = icmp ne i32 %97, 67
  br i1 %98, label %99, label %101

99:                                               ; preds = %91
  %100 = call i32 (i8*, ...) @printf(i8* getelementptr inbounds ([6 x i8], [6 x i8]* @.str.2, i64 0, i64 0))
  store i32 1, i32* %7, align 4
  br label %124

101:                                              ; preds = %91, %83, %75, %67
  %102 = getelementptr inbounds [2 x [650 x i8]], [2 x [650 x i8]]* %2, i64 0, i64 0
  %103 = load i32, i32* %8, align 4
  %104 = sext i32 %103 to i64
  %105 = getelementptr inbounds [650 x i8], [650 x i8]* %102, i64 0, i64 %104
  %106 = load i8, i8* %105, align 1
  %107 = sext i8 %106 to i32
  %108 = getelementptr inbounds [2 x [650 x i8]], [2 x [650 x i8]]* %2, i64 0, i64 1
  %109 = load i32, i32* %8, align 4
  %110 = sext i32 %109 to i64
  %111 = getelementptr inbounds [650 x i8], [650 x i8]* %108, i64 0, i64 %110
  %112 = load i8, i8* %111, align 1
  %113 = sext i8 %112 to i32
  %114 = icmp eq i32 %107, %113
  br i1 %114, label %115, label %118

115:                                              ; preds = %101
  %116 = load i32, i32* %6, align 4
  %117 = add nsw i32 %116, 1
  store i32 %117, i32* %6, align 4
  br label %118

118:                                              ; preds = %115, %101
  br label %119

119:                                              ; preds = %118
  br label %120

120:                                              ; preds = %119
  br label %121

121:                                              ; preds = %120
  %122 = load i32, i32* %8, align 4
  %123 = add nsw i32 %122, 1
  store i32 %123, i32* %8, align 4
  br label %29

124:                                              ; preds = %99, %65, %29
  %125 = load i32, i32* %7, align 4
  %126 = icmp eq i32 %125, 0
  br i1 %126, label %127, label %144

127:                                              ; preds = %124
  %128 = load i32, i32* %4, align 4
  %129 = load i32, i32* %5, align 4
  %130 = icmp ne i32 %128, %129
  br i1 %130, label %131, label %133

131:                                              ; preds = %127
  %132 = call i32 (i8*, ...) @printf(i8* getelementptr inbounds ([6 x i8], [6 x i8]* @.str.2, i64 0, i64 0))
  br label %143

133:                                              ; preds = %127
  %134 = load i32, i32* %6, align 4
  %135 = sitofp i32 %134 to double
  %136 = load double, double* %3, align 8
  %137 = fcmp oge double %135, %136
  br i1 %137, label %138, label %140

138:                                              ; preds = %133
  %139 = call i32 (i8*, ...) @printf(i8* getelementptr inbounds ([4 x i8], [4 x i8]* @.str.3, i64 0, i64 0))
  br label %142

140:                                              ; preds = %133
  %141 = call i32 (i8*, ...) @printf(i8* getelementptr inbounds ([3 x i8], [3 x i8]* @.str.4, i64 0, i64 0))
  br label %142

142:                                              ; preds = %140, %138
  br label %143

143:                                              ; preds = %142, %131
  br label %144

144:                                              ; preds = %143, %124
  ret i32 0
}

declare dso_local i32 @__isoc99_scanf(i8*, ...) #1

; Function Attrs: nounwind readonly
declare dso_local i64 @strlen(i8*) #2

declare dso_local i32 @printf(i8*, ...) #1


!llvm.module.flags = !{!0}
!llvm.ident = !{!1}

!0 = !{i32 1, !"wchar_size", i32 4}
!1 = !{!"clang version 10.0.0-4ubuntu1 "}
